target datalayout = "e-m:e-p270:32:32-p271:32:32-p272:64:64-i64:64-i128:128-f80:128-n8:16:32:64-S128"
target triple = "x86_64-pc-linux-gnu"

; Function Attrs: nounwind uwtable
define void @my_ccopy(i32 noundef %0, i32 noundef %1, ptr noundef %2, ptr noundef %3, i32 noundef %4, ptr noundef %5, i32 noundef %6, i32 noundef %7) #0 {
  %9 = alloca i32, align 4
  %10 = alloca i32, align 4
  %11 = alloca ptr, align 8
  %12 = alloca ptr, align 8
  %13 = alloca i32, align 4
  %14 = alloca ptr, align 8
  %15 = alloca i32, align 4
  %16 = alloca i32, align 4
  %17 = alloca i32, align 4
  %18 = alloca i32, align 4
  store i32 %0, ptr %9, align 4, !tbaa !8
  store i32 %1, ptr %10, align 4, !tbaa !8
  store ptr %2, ptr %11, align 8, !tbaa !3
  store ptr %3, ptr %12, align 8, !tbaa !3
  store i32 %4, ptr %13, align 4, !tbaa !8
  store ptr %5, ptr %14, align 8, !tbaa !3
  store i32 %6, ptr %15, align 4, !tbaa !8
  store i32 %7, ptr %16, align 4, !tbaa !8
  call void @llvm.lifetime.start.p0(i64 4, ptr %17) #5
  call void @llvm.lifetime.start.p0(i64 4, ptr %18) #5
  %19 = load i32, ptr %15, align 4, !tbaa !8
  %20 = mul nsw i32 %19, 2
  store i32 %20, ptr %15, align 4, !tbaa !8
  %21 = load i32, ptr %13, align 4, !tbaa !8
  %22 = mul nsw i32 %21, 2
  store i32 %22, ptr %13, align 4, !tbaa !8
  store i32 0, ptr %17, align 4, !tbaa !8
  br label %23

23:                                               ; preds = %116, %8
  %24 = load i32, ptr %17, align 4, !tbaa !8
  %25 = load i32, ptr %9, align 4, !tbaa !8
  %26 = icmp ne i32 %24, %25
  br i1 %26, label %27, label %119

27:                                               ; preds = %23
  store i32 0, ptr %18, align 4, !tbaa !8
  br label %28

28:                                               ; preds = %112, %27
  %29 = load i32, ptr %18, align 4, !tbaa !8
  %30 = load i32, ptr %10, align 4, !tbaa !8
  %31 = mul nsw i32 %30, 2
  %32 = icmp ne i32 %29, %31
  br i1 %32, label %33, label %115

33:                                               ; preds = %28
  %34 = load ptr, ptr %11, align 8, !tbaa !3
  %35 = getelementptr inbounds float, ptr %34, i64 0
  %36 = load float, ptr %35, align 4, !tbaa !10
  %37 = load ptr, ptr %12, align 8, !tbaa !3
  %38 = load i32, ptr %17, align 4, !tbaa !8
  %39 = load i32, ptr %13, align 4, !tbaa !8
  %40 = mul nsw i32 %38, %39
  %41 = load i32, ptr %18, align 4, !tbaa !8
  %42 = add nsw i32 %40, %41
  %43 = sext i32 %42 to i64
  %44 = getelementptr inbounds float, ptr %37, i64 %43
  %45 = load float, ptr %44, align 4, !tbaa !10
  %46 = load i32, ptr %16, align 4, !tbaa !8
  %47 = sitofp i32 %46 to float
  %48 = load ptr, ptr %11, align 8, !tbaa !3
  %49 = getelementptr inbounds float, ptr %48, i64 1
  %50 = load float, ptr %49, align 4, !tbaa !10
  %51 = fmul float %47, %50
  %52 = load ptr, ptr %12, align 8, !tbaa !3
  %53 = load i32, ptr %17, align 4, !tbaa !8
  %54 = load i32, ptr %13, align 4, !tbaa !8
  %55 = mul nsw i32 %53, %54
  %56 = load i32, ptr %18, align 4, !tbaa !8
  %57 = add nsw i32 %55, %56
  %58 = add nsw i32 %57, 1
  %59 = sext i32 %58 to i64
  %60 = getelementptr inbounds float, ptr %52, i64 %59
  %61 = load float, ptr %60, align 4, !tbaa !10
  %62 = fmul float %51, %61
  %63 = call float @llvm.fmuladd.f32(float %36, float %45, float %62)
  %64 = load ptr, ptr %14, align 8, !tbaa !3
  %65 = load i32, ptr %17, align 4, !tbaa !8
  %66 = load i32, ptr %15, align 4, !tbaa !8
  %67 = mul nsw i32 %65, %66
  %68 = load i32, ptr %18, align 4, !tbaa !8
  %69 = add nsw i32 %67, %68
  %70 = sext i32 %69 to i64
  %71 = getelementptr inbounds float, ptr %64, i64 %70
  store float %63, ptr %71, align 4, !tbaa !10
  %72 = load i32, ptr %16, align 4, !tbaa !8
  %73 = sitofp i32 %72 to float
  %74 = fmul float -1.000000e+00, %73
  %75 = load ptr, ptr %11, align 8, !tbaa !3
  %76 = getelementptr inbounds float, ptr %75, i64 0
  %77 = load float, ptr %76, align 4, !tbaa !10
  %78 = fmul float %74, %77
  %79 = load ptr, ptr %12, align 8, !tbaa !3
  %80 = load i32, ptr %17, align 4, !tbaa !8
  %81 = load i32, ptr %13, align 4, !tbaa !8
  %82 = mul nsw i32 %80, %81
  %83 = load i32, ptr %18, align 4, !tbaa !8
  %84 = add nsw i32 %82, %83
  %85 = add nsw i32 %84, 1
  %86 = sext i32 %85 to i64
  %87 = getelementptr inbounds float, ptr %79, i64 %86
  %88 = load float, ptr %87, align 4, !tbaa !10
  %89 = load ptr, ptr %11, align 8, !tbaa !3
  %90 = getelementptr inbounds float, ptr %89, i64 1
  %91 = load float, ptr %90, align 4, !tbaa !10
  %92 = load ptr, ptr %12, align 8, !tbaa !3
  %93 = load i32, ptr %17, align 4, !tbaa !8
  %94 = load i32, ptr %13, align 4, !tbaa !8
  %95 = mul nsw i32 %93, %94
  %96 = load i32, ptr %18, align 4, !tbaa !8
  %97 = add nsw i32 %95, %96
  %98 = sext i32 %97 to i64
  %99 = getelementptr inbounds float, ptr %92, i64 %98
  %100 = load float, ptr %99, align 4, !tbaa !10
  %101 = fmul float %91, %100
  %102 = call float @llvm.fmuladd.f32(float %78, float %88, float %101)
  %103 = load ptr, ptr %14, align 8, !tbaa !3
  %104 = load i32, ptr %17, align 4, !tbaa !8
  %105 = load i32, ptr %15, align 4, !tbaa !8
  %106 = mul nsw i32 %104, %105
  %107 = load i32, ptr %18, align 4, !tbaa !8
  %108 = add nsw i32 %106, %107
  %109 = add nsw i32 %108, 1
  %110 = sext i32 %109 to i64
  %111 = getelementptr inbounds float, ptr %103, i64 %110
  store float %102, ptr %111, align 4, !tbaa !10
  br label %112

112:                                              ; preds = %33
  %113 = load i32, ptr %18, align 4, !tbaa !8
  %114 = add nsw i32 %113, 2
  store i32 %114, ptr %18, align 4, !tbaa !8
  br label %28, !llvm.loop !37

115:                                              ; preds = %28
  br label %116

116:                                              ; preds = %115
  %117 = load i32, ptr %17, align 4, !tbaa !8
  %118 = add nsw i32 %117, 1
  store i32 %118, ptr %17, align 4, !tbaa !8
  br label %23, !llvm.loop !38

119:                                              ; preds = %23
  call void @llvm.lifetime.end.p0(i64 4, ptr %18) #5
  call void @llvm.lifetime.end.p0(i64 4, ptr %17) #5
  ret void
}